target datalayout = "e-m:e-p270:32:32-p271:32:32-p272:64:64-i64:64-i128:128-f80:128-n8:16:32:64-S128"
target triple = "x86_64-pc-linux-gnu"

; Function Attrs: nounwind uwtable
define internal void @dc_top_8x8_c(ptr noundef %0, i64 noundef %1, ptr noundef %2, ptr noundef %3) #1 {
  %5 = alloca ptr, align 8
  %6 = alloca i64, align 8
  %7 = alloca ptr, align 8
  %8 = alloca ptr, align 8
  %9 = alloca ptr, align 8
  %10 = alloca ptr, align 8
  %11 = alloca i32, align 4
  %12 = alloca i32, align 4
  store ptr %0, ptr %5, align 8, !tbaa !10
  store i64 %1, ptr %6, align 8, !tbaa !12
  store ptr %2, ptr %7, align 8, !tbaa !10
  store ptr %3, ptr %8, align 8, !tbaa !10
  call void @llvm.lifetime.start.p0(i64 8, ptr %9) #10
  %13 = load ptr, ptr %5, align 8, !tbaa !10
  store ptr %13, ptr %9, align 8, !tbaa !10
  call void @llvm.lifetime.start.p0(i64 8, ptr %10) #10
  %14 = load ptr, ptr %8, align 8, !tbaa !10
  store ptr %14, ptr %10, align 8, !tbaa !10
  call void @llvm.lifetime.start.p0(i64 4, ptr %11) #10
  %15 = load ptr, ptr %10, align 8, !tbaa !10
  %16 = getelementptr inbounds i8, ptr %15, i64 0
  %17 = load i8, ptr %16, align 1, !tbaa !14
  %18 = zext i8 %17 to i32
  %19 = load ptr, ptr %10, align 8, !tbaa !10
  %20 = getelementptr inbounds i8, ptr %19, i64 1
  %21 = load i8, ptr %20, align 1, !tbaa !14
  %22 = zext i8 %21 to i32
  %23 = add nsw i32 %18, %22
  %24 = load ptr, ptr %10, align 8, !tbaa !10
  %25 = getelementptr inbounds i8, ptr %24, i64 2
  %26 = load i8, ptr %25, align 1, !tbaa !14
  %27 = zext i8 %26 to i32
  %28 = add nsw i32 %23, %27
  %29 = load ptr, ptr %10, align 8, !tbaa !10
  %30 = getelementptr inbounds i8, ptr %29, i64 3
  %31 = load i8, ptr %30, align 1, !tbaa !14
  %32 = zext i8 %31 to i32
  %33 = add nsw i32 %28, %32
  %34 = load ptr, ptr %10, align 8, !tbaa !10
  %35 = getelementptr inbounds i8, ptr %34, i64 4
  %36 = load i8, ptr %35, align 1, !tbaa !14
  %37 = zext i8 %36 to i32
  %38 = add nsw i32 %33, %37
  %39 = load ptr, ptr %10, align 8, !tbaa !10
  %40 = getelementptr inbounds i8, ptr %39, i64 5
  %41 = load i8, ptr %40, align 1, !tbaa !14
  %42 = zext i8 %41 to i32
  %43 = add nsw i32 %38, %42
  %44 = load ptr, ptr %10, align 8, !tbaa !10
  %45 = getelementptr inbounds i8, ptr %44, i64 6
  %46 = load i8, ptr %45, align 1, !tbaa !14
  %47 = zext i8 %46 to i32
  %48 = add nsw i32 %43, %47
  %49 = load ptr, ptr %10, align 8, !tbaa !10
  %50 = getelementptr inbounds i8, ptr %49, i64 7
  %51 = load i8, ptr %50, align 1, !tbaa !14
  %52 = zext i8 %51 to i32
  %53 = add nsw i32 %48, %52
  %54 = add nsw i32 %53, 4
  %55 = ashr i32 %54, 3
  %56 = mul i32 %55, 16843009
  store i32 %56, ptr %11, align 4, !tbaa !15
  call void @llvm.lifetime.start.p0(i64 4, ptr %12) #10
  %57 = load i64, ptr %6, align 8, !tbaa !12
  %58 = udiv i64 %57, 1
  store i64 %58, ptr %6, align 8, !tbaa !12
  store i32 0, ptr %12, align 4, !tbaa !15
  br label %59

59:                                               ; preds = %72, %4
  %60 = load i32, ptr %12, align 4, !tbaa !15
  %61 = icmp slt i32 %60, 8
  br i1 %61, label %62, label %75

62:                                               ; preds = %59
  %63 = load i32, ptr %11, align 4, !tbaa !15
  %64 = load ptr, ptr %9, align 8, !tbaa !10
  %65 = getelementptr inbounds i8, ptr %64, i64 0
  store i32 %63, ptr %65, align 4, !tbaa !14
  %66 = load i32, ptr %11, align 4, !tbaa !15
  %67 = load ptr, ptr %9, align 8, !tbaa !10
  %68 = getelementptr inbounds i8, ptr %67, i64 4
  store i32 %66, ptr %68, align 4, !tbaa !14
  %69 = load i64, ptr %6, align 8, !tbaa !12
  %70 = load ptr, ptr %9, align 8, !tbaa !10
  %71 = getelementptr inbounds i8, ptr %70, i64 %69
  store ptr %71, ptr %9, align 8, !tbaa !10
  br label %72

72:                                               ; preds = %62
  %73 = load i32, ptr %12, align 4, !tbaa !15
  %74 = add nsw i32 %73, 1
  store i32 %74, ptr %12, align 4, !tbaa !15
  br label %59, !llvm.loop !37

75:                                               ; preds = %59
  call void @llvm.lifetime.end.p0(i64 4, ptr %12) #10
  call void @llvm.lifetime.end.p0(i64 4, ptr %11) #10
  call void @llvm.lifetime.end.p0(i64 8, ptr %10) #10
  call void @llvm.lifetime.end.p0(i64 8, ptr %9) #10
  ret void
}