; Function Attrs: nofree norecurse nosync nounwind memory(argmem: readwrite) uwtable
define internal void @dc_top_8x8_c(ptr noundef writeonly captures(none) %0, i64 noundef %1, ptr readnone captures(none) %2, ptr noundef readonly captures(none) %3) #2 {
  %5 = load i8, ptr %3, align 1, !tbaa !8
  %6 = zext i8 %5 to i32
  %7 = getelementptr inbounds nuw i8, ptr %3, i64 1
  %8 = load i8, ptr %7, align 1, !tbaa !8
  %9 = zext i8 %8 to i32
  %10 = getelementptr inbounds nuw i8, ptr %3, i64 2
  %11 = load i8, ptr %10, align 1, !tbaa !8
  %12 = zext i8 %11 to i32
  %13 = getelementptr inbounds nuw i8, ptr %3, i64 3
  %14 = load i8, ptr %13, align 1, !tbaa !8
  %15 = zext i8 %14 to i32
  %16 = getelementptr inbounds nuw i8, ptr %3, i64 4
  %17 = load i8, ptr %16, align 1, !tbaa !8
  %18 = zext i8 %17 to i32
  %19 = getelementptr inbounds nuw i8, ptr %3, i64 5
  %20 = load i8, ptr %19, align 1, !tbaa !8
  %21 = zext i8 %20 to i32
  %22 = getelementptr inbounds nuw i8, ptr %3, i64 6
  %23 = load i8, ptr %22, align 1, !tbaa !8
  %24 = zext i8 %23 to i32
  %25 = getelementptr inbounds nuw i8, ptr %3, i64 7
  %26 = load i8, ptr %25, align 1, !tbaa !8
  %27 = zext i8 %26 to i32
  %28 = add nuw nsw i32 %6, 4
  %29 = add nuw nsw i32 %28, %9
  %30 = add nuw nsw i32 %29, %12
  %31 = add nuw nsw i32 %30, %15
  %32 = add nuw nsw i32 %31, %18
  %33 = add nuw nsw i32 %32, %21
  %34 = add nuw nsw i32 %33, %24
  %35 = add nuw nsw i32 %34, %27
  %36 = lshr i32 %35, 3
  %37 = mul nuw i32 %36, 16843009
  br label %38

38:                                               ; preds = %4, %38
  %.020 = phi i32 [ 0, %4 ], [ %41, %38 ]
  %.01819 = phi ptr [ %0, %4 ], [ %40, %38 ]
  store i32 %37, ptr %.01819, align 4, !tbaa !8
  %39 = getelementptr inbounds nuw i8, ptr %.01819, i64 4
  store i32 %37, ptr %39, align 4, !tbaa !8
  %40 = getelementptr inbounds i8, ptr %.01819, i64 %1
  %41 = add nuw nsw i32 %.020, 1
  %exitcond.not = icmp eq i32 %41, 8
  br i1 %exitcond.not, label %42, label %38, !llvm.loop !29

42:                                               ; preds = %38
  ret void
}